target datalayout = "e-m:e-p270:32:32-p271:32:32-p272:64:64-i64:64-i128:128-f80:128-n8:16:32:64-S128"
target triple = "x86_64-pc-linux-gnu"

%struct.ffc_params_st = type { ptr, ptr, ptr, ptr, ptr, i64, i32, i32, i32, i32, i32, ptr, ptr, i32 }

; Function Attrs: nounwind uwtable
define i32 @ossl_ffc_params_FIPS186_4_validate(ptr noundef %0, ptr noundef %1, i32 noundef %2, ptr noundef %3, ptr noundef %4) #0 {
  %6 = alloca i32, align 4
  %7 = alloca ptr, align 8
  %8 = alloca ptr, align 8
  %9 = alloca i32, align 4
  %10 = alloca ptr, align 8
  %11 = alloca ptr, align 8
  %12 = alloca i64, align 8
  %13 = alloca i64, align 8
  %14 = alloca i32, align 4
  store ptr %0, ptr %7, align 8, !tbaa !16
  store ptr %1, ptr %8, align 8, !tbaa !18
  store i32 %2, ptr %9, align 4, !tbaa !14
  store ptr %3, ptr %10, align 8, !tbaa !12
  store ptr %4, ptr %11, align 8, !tbaa !20
  call void @llvm.lifetime.start.p0(i64 8, ptr %12) #4
  call void @llvm.lifetime.start.p0(i64 8, ptr %13) #4
  %15 = load ptr, ptr %8, align 8, !tbaa !18
  %16 = icmp eq ptr %15, null
  br i1 %16, label %27, label %17

17:                                               ; preds = %5
  %18 = load ptr, ptr %8, align 8, !tbaa !18
  %19 = getelementptr inbounds nuw %struct.ffc_params_st, ptr %18, i32 0, i32 0
  %20 = load ptr, ptr %19, align 8, !tbaa !22
  %21 = icmp eq ptr %20, null
  br i1 %21, label %27, label %22

22:                                               ; preds = %17
  %23 = load ptr, ptr %8, align 8, !tbaa !18
  %24 = getelementptr inbounds nuw %struct.ffc_params_st, ptr %23, i32 0, i32 1
  %25 = load ptr, ptr %24, align 8, !tbaa !26
  %26 = icmp eq ptr %25, null
  br i1 %26, label %27, label %28

27:                                               ; preds = %22, %17, %5
  store i32 0, ptr %6, align 4
  store i32 1, ptr %14, align 4
  br label %47

28:                                               ; preds = %22
  %29 = load ptr, ptr %8, align 8, !tbaa !18
  %30 = getelementptr inbounds nuw %struct.ffc_params_st, ptr %29, i32 0, i32 0
  %31 = load ptr, ptr %30, align 8, !tbaa !22
  %32 = call i32 @BN_num_bits(ptr noundef %31)
  %33 = sext i32 %32 to i64
  store i64 %33, ptr %12, align 8, !tbaa !27
  %34 = load ptr, ptr %8, align 8, !tbaa !18
  %35 = getelementptr inbounds nuw %struct.ffc_params_st, ptr %34, i32 0, i32 1
  %36 = load ptr, ptr %35, align 8, !tbaa !26
  %37 = call i32 @BN_num_bits(ptr noundef %36)
  %38 = sext i32 %37 to i64
  store i64 %38, ptr %13, align 8, !tbaa !27
  %39 = load ptr, ptr %7, align 8, !tbaa !16
  %40 = load ptr, ptr %8, align 8, !tbaa !18
  %41 = load i32, ptr %9, align 4, !tbaa !14
  %42 = load i64, ptr %12, align 8, !tbaa !27
  %43 = load i64, ptr %13, align 8, !tbaa !27
  %44 = load ptr, ptr %10, align 8, !tbaa !12
  %45 = load ptr, ptr %11, align 8, !tbaa !20
  %46 = call i32 @ossl_ffc_params_FIPS186_4_gen_verify(ptr noundef %39, ptr noundef %40, i32 noundef 0, i32 noundef %41, i64 noundef %42, i64 noundef %43, ptr noundef %44, ptr noundef %45)
  store i32 %46, ptr %6, align 4
  store i32 1, ptr %14, align 4
  br label %47

47:                                               ; preds = %28, %27
  call void @llvm.lifetime.end.p0(i64 8, ptr %13) #4
  call void @llvm.lifetime.end.p0(i64 8, ptr %12) #4
  %48 = load i32, ptr %6, align 4
  ret i32 %48
}