; Function Attrs: nounwind uwtable
define i32 @ossl_ffc_params_FIPS186_4_validate(ptr noundef %0, ptr noundef %1, i32 noundef %2, ptr noundef %3, ptr noundef %4) local_unnamed_addr #0 {
  %6 = icmp eq ptr %1, null
  br i1 %6, label %21, label %7

7:                                                ; preds = %5
  %8 = load ptr, ptr %1, align 8, !tbaa !7
  %9 = icmp eq ptr %8, null
  br i1 %9, label %21, label %10

10:                                               ; preds = %7
  %11 = getelementptr inbounds nuw i8, ptr %1, i64 8
  %12 = load ptr, ptr %11, align 8, !tbaa !13
  %13 = icmp eq ptr %12, null
  br i1 %13, label %21, label %14

14:                                               ; preds = %10
  %15 = tail call i32 @BN_num_bits(ptr noundef nonnull %8) #4
  %16 = sext i32 %15 to i64
  %17 = load ptr, ptr %11, align 8, !tbaa !13
  %18 = tail call i32 @BN_num_bits(ptr noundef %17) #4
  %19 = sext i32 %18 to i64
  %20 = tail call i32 @ossl_ffc_params_FIPS186_4_gen_verify(ptr noundef %0, ptr noundef nonnull %1, i32 noundef 0, i32 noundef %2, i64 noundef %16, i64 noundef %19, ptr noundef %3, ptr noundef %4) #4
  br label %21

21:                                               ; preds = %5, %7, %10, %14
  %.0 = phi i32 [ %20, %14 ], [ 0, %10 ], [ 0, %7 ], [ 0, %5 ]
  ret i32 %.0
}